(dp0
S'SVM'
p1
(dp2
S'50_AC'
p3
cnumpy.core.multiarray
scalar
p4
(cnumpy
dtype
p5
(S'f8'
p6
I0
I1
tp7
Rp8
(I3
S'<'
p9
NNNI-1
I-1
I0
tp10
bS'8\xbd\xe9Moz\xe3?'
p11
tp12
Rp13
sS'50_MI'
p14
g4
(g8
S'8\xbd\xe9Moz\xe3?'
p15
tp16
Rp17
sS'50_MA'
p18
g4
(g8
S'\x05\x83ck\xe9\xc9\xd1?'
p19
tp20
Rp21
ssS'LR'
p22
(dp23
g3
g4
(g8
S'A\xd1V\x83\xe7\x08\xe4?'
p24
tp25
Rp26
sg14
g4
(g8
S'A\xd1V\x83\xe7\x08\xe4?'
p27
tp28
Rp29
sg18
g4
(g8
S'k(,V\x7fM\xd2?'
p30
tp31
Rp32
ss.